
delay_int.elf:     file format elf32-avr

Sections:
Idx Name          Size      VMA       LMA       File off  Algn
  0 .text         00000168  00000000  00000000  00000074  2**1
                  CONTENTS, ALLOC, LOAD, READONLY, CODE
  1 .bss          00000004  00800060  00000168  000001dc  2**0
                  ALLOC
  2 .stab         000003d8  00000000  00000000  000001dc  2**2
                  CONTENTS, READONLY, DEBUGGING
  3 .stabstr      00000692  00000000  00000000  000005b4  2**0
                  CONTENTS, READONLY, DEBUGGING
Disassembly of section .text:

00000000 <__vectors>:
   0:	12 c0       	rjmp	.+36     	; 0x26 <__ctors_end>
   2:	2c c0       	rjmp	.+88     	; 0x5c <__bad_interrupt>
   4:	2b c0       	rjmp	.+86     	; 0x5c <__bad_interrupt>
   6:	2b c0       	rjmp	.+86     	; 0x5e <__vector_3>
   8:	29 c0       	rjmp	.+82     	; 0x5c <__bad_interrupt>
   a:	28 c0       	rjmp	.+80     	; 0x5c <__bad_interrupt>
   c:	27 c0       	rjmp	.+78     	; 0x5c <__bad_interrupt>
   e:	26 c0       	rjmp	.+76     	; 0x5c <__bad_interrupt>
  10:	25 c0       	rjmp	.+74     	; 0x5c <__bad_interrupt>
  12:	24 c0       	rjmp	.+72     	; 0x5c <__bad_interrupt>
  14:	23 c0       	rjmp	.+70     	; 0x5c <__bad_interrupt>
  16:	22 c0       	rjmp	.+68     	; 0x5c <__bad_interrupt>
  18:	21 c0       	rjmp	.+66     	; 0x5c <__bad_interrupt>
  1a:	20 c0       	rjmp	.+64     	; 0x5c <__bad_interrupt>
  1c:	1f c0       	rjmp	.+62     	; 0x5c <__bad_interrupt>
  1e:	1e c0       	rjmp	.+60     	; 0x5c <__bad_interrupt>
  20:	1d c0       	rjmp	.+58     	; 0x5c <__bad_interrupt>
  22:	1c c0       	rjmp	.+56     	; 0x5c <__bad_interrupt>
  24:	1b c0       	rjmp	.+54     	; 0x5c <__bad_interrupt>

00000026 <__ctors_end>:
  26:	11 24       	eor	r1, r1
  28:	1f be       	out	0x3f, r1	; 63
  2a:	cf e5       	ldi	r28, 0x5F	; 95
  2c:	d4 e0       	ldi	r29, 0x04	; 4
  2e:	de bf       	out	0x3e, r29	; 62
  30:	cd bf       	out	0x3d, r28	; 61

00000032 <__do_copy_data>:
  32:	10 e0       	ldi	r17, 0x00	; 0
  34:	a0 e6       	ldi	r26, 0x60	; 96
  36:	b0 e0       	ldi	r27, 0x00	; 0
  38:	e8 e6       	ldi	r30, 0x68	; 104
  3a:	f1 e0       	ldi	r31, 0x01	; 1
  3c:	02 c0       	rjmp	.+4      	; 0x42 <.do_copy_data_start>

0000003e <.do_copy_data_loop>:
  3e:	05 90       	lpm	r0, Z+
  40:	0d 92       	st	X+, r0

00000042 <.do_copy_data_start>:
  42:	a0 36       	cpi	r26, 0x60	; 96
  44:	b1 07       	cpc	r27, r17
  46:	d9 f7       	brne	.-10     	; 0x3e <.do_copy_data_loop>

00000048 <__do_clear_bss>:
  48:	10 e0       	ldi	r17, 0x00	; 0
  4a:	a0 e6       	ldi	r26, 0x60	; 96
  4c:	b0 e0       	ldi	r27, 0x00	; 0
  4e:	01 c0       	rjmp	.+2      	; 0x52 <.do_clear_bss_start>

00000050 <.do_clear_bss_loop>:
  50:	1d 92       	st	X+, r1

00000052 <.do_clear_bss_start>:
  52:	a4 36       	cpi	r26, 0x64	; 100
  54:	b1 07       	cpc	r27, r17
  56:	e1 f7       	brne	.-8      	; 0x50 <.do_clear_bss_loop>
  58:	2b d0       	rcall	.+86     	; 0xb0 <main>
  5a:	84 c0       	rjmp	.+264    	; 0x164 <_exit>

0000005c <__bad_interrupt>:
  5c:	d1 cf       	rjmp	.-94     	; 0x0 <__vectors>

0000005e <__vector_3>:

// ***********************************************************
// Main program
//
ISR(TIMER2_COMP_vect)
{
  5e:	1f 92       	push	r1
  60:	0f 92       	push	r0
  62:	0f b6       	in	r0, 0x3f	; 63
  64:	0f 92       	push	r0
  66:	11 24       	eor	r1, r1
  68:	8f 93       	push	r24
  6a:	9f 93       	push	r25
  6c:	df 93       	push	r29
  6e:	cf 93       	push	r28
  70:	00 d0       	rcall	.+0      	; 0x72 <__vector_3+0x14>
  72:	cd b7       	in	r28, 0x3d	; 61
  74:	de b7       	in	r29, 0x3e	; 62
    flag = !flag;
  76:	80 91 60 00 	lds	r24, 0x0060
  7a:	90 91 61 00 	lds	r25, 0x0061
  7e:	1a 82       	std	Y+2, r1	; 0x02
  80:	19 82       	std	Y+1, r1	; 0x01
  82:	00 97       	sbiw	r24, 0x00	; 0
  84:	21 f4       	brne	.+8      	; 0x8e <__vector_3+0x30>
  86:	81 e0       	ldi	r24, 0x01	; 1
  88:	90 e0       	ldi	r25, 0x00	; 0
  8a:	9a 83       	std	Y+2, r25	; 0x02
  8c:	89 83       	std	Y+1, r24	; 0x01
  8e:	89 81       	ldd	r24, Y+1	; 0x01
  90:	9a 81       	ldd	r25, Y+2	; 0x02
  92:	90 93 61 00 	sts	0x0061, r25
  96:	80 93 60 00 	sts	0x0060, r24
}
  9a:	0f 90       	pop	r0
  9c:	0f 90       	pop	r0
  9e:	cf 91       	pop	r28
  a0:	df 91       	pop	r29
  a2:	9f 91       	pop	r25
  a4:	8f 91       	pop	r24
  a6:	0f 90       	pop	r0
  a8:	0f be       	out	0x3f, r0	; 63
  aa:	0f 90       	pop	r0
  ac:	1f 90       	pop	r1
  ae:	18 95       	reti

000000b0 <main>:

int main(void) {
  b0:	df 93       	push	r29
  b2:	cf 93       	push	r28
  b4:	cd b7       	in	r28, 0x3d	; 61
  b6:	de b7       	in	r29, 0x3e	; 62
 //DDRD = 0xF0;
PIN_SET(DDRD,PD5);
  b8:	a1 e3       	ldi	r26, 0x31	; 49
  ba:	b0 e0       	ldi	r27, 0x00	; 0
  bc:	e1 e3       	ldi	r30, 0x31	; 49
  be:	f0 e0       	ldi	r31, 0x00	; 0
  c0:	80 81       	ld	r24, Z
  c2:	80 62       	ori	r24, 0x20	; 32
  c4:	8c 93       	st	X, r24
PIN_SET(DDRD,PD6);
  c6:	a1 e3       	ldi	r26, 0x31	; 49
  c8:	b0 e0       	ldi	r27, 0x00	; 0
  ca:	e1 e3       	ldi	r30, 0x31	; 49
  cc:	f0 e0       	ldi	r31, 0x00	; 0
  ce:	80 81       	ld	r24, Z
  d0:	80 64       	ori	r24, 0x40	; 64
  d2:	8c 93       	st	X, r24
PIN_CLEAR(PORTD,PD5);
  d4:	a2 e3       	ldi	r26, 0x32	; 50
  d6:	b0 e0       	ldi	r27, 0x00	; 0
  d8:	e2 e3       	ldi	r30, 0x32	; 50
  da:	f0 e0       	ldi	r31, 0x00	; 0
  dc:	80 81       	ld	r24, Z
  de:	8f 7d       	andi	r24, 0xDF	; 223
  e0:	8c 93       	st	X, r24
PIN_CLEAR(PORTD,PD6);
  e2:	a2 e3       	ldi	r26, 0x32	; 50
  e4:	b0 e0       	ldi	r27, 0x00	; 0
  e6:	e2 e3       	ldi	r30, 0x32	; 50
  e8:	f0 e0       	ldi	r31, 0x00	; 0
  ea:	80 81       	ld	r24, Z
  ec:	8f 7b       	andi	r24, 0xBF	; 191
  ee:	8c 93       	st	X, r24
TCNT2 = 0;
  f0:	e4 e4       	ldi	r30, 0x44	; 68
  f2:	f0 e0       	ldi	r31, 0x00	; 0
  f4:	10 82       	st	Z, r1
 OCR2 = 61;
  f6:	e3 e4       	ldi	r30, 0x43	; 67
  f8:	f0 e0       	ldi	r31, 0x00	; 0
  fa:	8d e3       	ldi	r24, 0x3D	; 61
  fc:	80 83       	st	Z, r24
 TIMSK  = TIMSK |  (1<<OCIE2);
  fe:	a9 e5       	ldi	r26, 0x59	; 89
 100:	b0 e0       	ldi	r27, 0x00	; 0
 102:	e9 e5       	ldi	r30, 0x59	; 89
 104:	f0 e0       	ldi	r31, 0x00	; 0
 106:	80 81       	ld	r24, Z
 108:	80 68       	ori	r24, 0x80	; 128
 10a:	8c 93       	st	X, r24
 TCCR2  = TCCR2 | (1<< CS21)| (1 << WGM21);
 10c:	a5 e4       	ldi	r26, 0x45	; 69
 10e:	b0 e0       	ldi	r27, 0x00	; 0
 110:	e5 e4       	ldi	r30, 0x45	; 69
 112:	f0 e0       	ldi	r31, 0x00	; 0
 114:	80 81       	ld	r24, Z
 116:	8a 60       	ori	r24, 0x0A	; 10
 118:	8c 93       	st	X, r24

 sei();
 11a:	78 94       	sei

   while(1) {             // Infinite loop; define here the
      PIN_SET(PORTD,PD5);
 11c:	a2 e3       	ldi	r26, 0x32	; 50
 11e:	b0 e0       	ldi	r27, 0x00	; 0
 120:	e2 e3       	ldi	r30, 0x32	; 50
 122:	f0 e0       	ldi	r31, 0x00	; 0
 124:	80 81       	ld	r24, Z
 126:	80 62       	ori	r24, 0x20	; 32
 128:	8c 93       	st	X, r24
      PIN_CLEAR(PORTD,PD6);
 12a:	a2 e3       	ldi	r26, 0x32	; 50
 12c:	b0 e0       	ldi	r27, 0x00	; 0
 12e:	e2 e3       	ldi	r30, 0x32	; 50
 130:	f0 e0       	ldi	r31, 0x00	; 0
 132:	80 81       	ld	r24, Z
 134:	8f 7b       	andi	r24, 0xBF	; 191
 136:	8c 93       	st	X, r24

		if(flag ==1)
 138:	80 91 60 00 	lds	r24, 0x0060
 13c:	90 91 61 00 	lds	r25, 0x0061
 140:	81 30       	cpi	r24, 0x01	; 1
 142:	91 05       	cpc	r25, r1
 144:	59 f7       	brne	.-42     	; 0x11c <main+0x6c>
     {
      	PIN_CLEAR(PORTD,PD5);
 146:	a2 e3       	ldi	r26, 0x32	; 50
 148:	b0 e0       	ldi	r27, 0x00	; 0
 14a:	e2 e3       	ldi	r30, 0x32	; 50
 14c:	f0 e0       	ldi	r31, 0x00	; 0
 14e:	80 81       	ld	r24, Z
 150:	8f 7d       	andi	r24, 0xDF	; 223
 152:	8c 93       	st	X, r24
      	PIN_SET(PORTD,PD6);
 154:	a2 e3       	ldi	r26, 0x32	; 50
 156:	b0 e0       	ldi	r27, 0x00	; 0
 158:	e2 e3       	ldi	r30, 0x32	; 50
 15a:	f0 e0       	ldi	r31, 0x00	; 0
 15c:	80 81       	ld	r24, Z
 15e:	80 64       	ori	r24, 0x40	; 64
 160:	8c 93       	st	X, r24
 162:	dc cf       	rjmp	.-72     	; 0x11c <main+0x6c>

00000164 <_exit>:
 164:	f8 94       	cli

00000166 <__stop_program>:
 166:	ff cf       	rjmp	.-2      	; 0x166 <__stop_program>
